target datalayout = "e-m:e-p270:32:32-p271:32:32-p272:64:64-i64:64-i128:128-f80:128-n8:16:32:64-S128"
target triple = "x86_64-pc-linux-gnu"

%"struct.icu_77::UInitOnce" = type { %"struct.std::atomic", i32 }
%"struct.std::atomic" = type { %"struct.std::__atomic_base" }
%"struct.std::__atomic_base" = type { i32 }

@_ZN6icu_77L16availableRegionsE = internal global [7 x ptr] zeroinitializer, align 16
@_ZN6icu_77L19gRegionDataInitOnceE = internal global { { i32 }, i32 } zeroinitializer, align 4
@_ZN6icu_7721RegionNameEnumerationC1EPNS_7UVectorER10UErrorCode = unnamed_addr alias void (ptr, ptr, ptr), ptr @_ZN6icu_7721RegionNameEnumerationC2EPNS_7UVectorER10UErrorCode

; Function Attrs: mustprogress nounwind uwtable
define linkonce_odr noundef i32 @_ZStanSt12memory_orderSt23__memory_order_modifier(i32 noundef %0, i32 noundef %1) #0 comdat {
  %3 = alloca i32, align 4
  %4 = alloca i32, align 4
  store i32 %0, ptr %3, align 4, !tbaa !148
  store i32 %1, ptr %4, align 4, !tbaa !150
  %5 = load i32, ptr %3, align 4, !tbaa !148
  %6 = load i32, ptr %4, align 4, !tbaa !150
  %7 = and i32 %5, %6
  ret i32 %7
}

; Function Attrs: alwaysinline mustprogress nounwind uwtable
define linkonce_odr noundef i32 @_ZNKSt13__atomic_baseIiE4loadESt12memory_order(ptr noundef nonnull align 4 dereferenceable(4) %0, i32 noundef %1) #11 comdat align 2 {
  %3 = alloca ptr, align 8
  %4 = alloca i32, align 4
  %5 = alloca i32, align 4
  %6 = alloca i32, align 4
  store ptr %0, ptr %3, align 8, !tbaa !146
  store i32 %1, ptr %4, align 4, !tbaa !148
  %7 = load ptr, ptr %3, align 8
  call void @llvm.lifetime.start.p0(i64 4, ptr %5) #12
  %8 = load i32, ptr %4, align 4, !tbaa !148
  %9 = call noundef i32 @_ZStanSt12memory_orderSt23__memory_order_modifier(i32 noundef %8, i32 noundef 65535)
  store i32 %9, ptr %5, align 4, !tbaa !148
  br label %10

10:                                               ; preds = %2
  br label %11

11:                                               ; preds = %10
  br label %12

12:                                               ; preds = %11
  br label %13

13:                                               ; preds = %12
  br label %14

14:                                               ; preds = %13
  br label %15

15:                                               ; preds = %14
  %16 = getelementptr inbounds nuw %"struct.std::__atomic_base", ptr %7, i32 0, i32 0
  %17 = load i32, ptr %4, align 4, !tbaa !148
  switch i32 %17, label %18 [
    i32 1, label %20
    i32 2, label %20
    i32 5, label %22
  ]

18:                                               ; preds = %15
  %19 = load atomic i32, ptr %16 monotonic, align 4
  store i32 %19, ptr %6, align 4
  br label %24

20:                                               ; preds = %15, %15
  %21 = load atomic i32, ptr %16 acquire, align 4
  store i32 %21, ptr %6, align 4
  br label %24

22:                                               ; preds = %15
  %23 = load atomic i32, ptr %16 seq_cst, align 4
  store i32 %23, ptr %6, align 4
  br label %24

24:                                               ; preds = %22, %20, %18
  %25 = load i32, ptr %6, align 4, !tbaa !14
  call void @llvm.lifetime.end.p0(i64 4, ptr %5) #12
  ret i32 %25
}

; Function Attrs: inlinehint mustprogress nounwind uwtable
define linkonce_odr noundef i32 @_ZN6icu_7716umtx_loadAcquireERSt6atomicIiE(ptr noundef nonnull align 4 dereferenceable(4) %0) #2 comdat {
  %2 = alloca ptr, align 8
  store ptr %0, ptr %2, align 8, !tbaa !152
  %3 = load ptr, ptr %2, align 8, !tbaa !152
  %4 = call noundef i32 @_ZNKSt13__atomic_baseIiE4loadESt12memory_order(ptr noundef nonnull align 4 dereferenceable(4) %3, i32 noundef 2) #12
  ret i32 %4
}

; Function Attrs: inlinehint mustprogress nounwind uwtable
define internal noundef signext i8 @_ZL9U_FAILURE10UErrorCode(i32 noundef %0) #2 {
  %2 = alloca i32, align 4
  store i32 %0, ptr %2, align 4, !tbaa !15
  %3 = load i32, ptr %2, align 4, !tbaa !15
  %4 = icmp sgt i32 %3, 0
  %5 = zext i1 %4 to i8
  ret i8 %5
}

; Function Attrs: inlinehint mustprogress uwtable
define linkonce_odr void @_ZN6icu_7713umtx_initOnceERNS_9UInitOnceEPFvR10UErrorCodeES3_(ptr noundef nonnull align 4 dereferenceable(8) %0, ptr noundef %1, ptr noundef nonnull align 4 dereferenceable(4) %2) #3 comdat {
  %4 = alloca ptr, align 8
  %5 = alloca ptr, align 8
  %6 = alloca ptr, align 8
  store ptr %0, ptr %4, align 8, !tbaa !114
  store ptr %1, ptr %5, align 8, !tbaa !22
  store ptr %2, ptr %6, align 8, !tbaa !22
  %7 = load ptr, ptr %6, align 8, !tbaa !22
  %8 = load i32, ptr %7, align 4, !tbaa !15
  %9 = call noundef signext i8 @_ZL9U_FAILURE10UErrorCode(i32 noundef %8)
  %10 = icmp ne i8 %9, 0
  br i1 %10, label %11, label %12

11:                                               ; preds = %3
  br label %41

12:                                               ; preds = %3
  %13 = load ptr, ptr %4, align 8, !tbaa !114
  %14 = getelementptr inbounds nuw %"struct.icu_77::UInitOnce", ptr %13, i32 0, i32 0
  %15 = call noundef i32 @_ZN6icu_7716umtx_loadAcquireERSt6atomicIiE(ptr noundef nonnull align 4 dereferenceable(4) %14)
  %16 = icmp ne i32 %15, 2
  br i1 %16, label %17, label %29

17:                                               ; preds = %12
  %18 = load ptr, ptr %4, align 8, !tbaa !114
  %19 = call noundef signext i8 @_ZN6icu_7720umtx_initImplPreInitERNS_9UInitOnceE(ptr noundef nonnull align 4 dereferenceable(8) %18)
  %20 = icmp ne i8 %19, 0
  br i1 %20, label %21, label %29

21:                                               ; preds = %17
  %22 = load ptr, ptr %5, align 8, !tbaa !22
  %23 = load ptr, ptr %6, align 8, !tbaa !22
  call void %22(ptr noundef nonnull align 4 dereferenceable(4) %23)
  %24 = load ptr, ptr %6, align 8, !tbaa !22
  %25 = load i32, ptr %24, align 4, !tbaa !15
  %26 = load ptr, ptr %4, align 8, !tbaa !114
  %27 = getelementptr inbounds nuw %"struct.icu_77::UInitOnce", ptr %26, i32 0, i32 1
  store i32 %25, ptr %27, align 4, !tbaa !120
  %28 = load ptr, ptr %4, align 8, !tbaa !114
  call void @_ZN6icu_7721umtx_initImplPostInitERNS_9UInitOnceE(ptr noundef nonnull align 4 dereferenceable(8) %28)
  br label %41

29:                                               ; preds = %17, %12
  %30 = load ptr, ptr %4, align 8, !tbaa !114
  %31 = getelementptr inbounds nuw %"struct.icu_77::UInitOnce", ptr %30, i32 0, i32 1
  %32 = load i32, ptr %31, align 4, !tbaa !120
  %33 = call noundef signext i8 @_ZL9U_FAILURE10UErrorCode(i32 noundef %32)
  %34 = icmp ne i8 %33, 0
  br i1 %34, label %35, label %40

35:                                               ; preds = %29
  %36 = load ptr, ptr %4, align 8, !tbaa !114
  %37 = getelementptr inbounds nuw %"struct.icu_77::UInitOnce", ptr %36, i32 0, i32 1
  %38 = load i32, ptr %37, align 4, !tbaa !120
  %39 = load ptr, ptr %6, align 8, !tbaa !22
  store i32 %38, ptr %39, align 4, !tbaa !15
  br label %40

40:                                               ; preds = %35, %29
  br label %41

41:                                               ; preds = %11, %40, %21
  ret void
}

; Function Attrs: mustprogress uwtable
define noundef ptr @_ZN6icu_776Region12getAvailableE11URegionTypeR10UErrorCode(i32 noundef %0, ptr noundef nonnull align 4 dereferenceable(4) %1) #1 align 2 personality ptr @__gxx_personality_v0 {
  %3 = alloca ptr, align 8
  %4 = alloca i32, align 4
  %5 = alloca ptr, align 8
  %6 = alloca ptr, align 8
  %7 = alloca i1, align 1
  %8 = alloca ptr, align 8
  %9 = alloca i32, align 4
  store i32 %0, ptr %4, align 4, !tbaa !124
  store ptr %1, ptr %5, align 8, !tbaa !22
  %10 = load ptr, ptr %5, align 8, !tbaa !22
  call void @_ZN6icu_7713umtx_initOnceERNS_9UInitOnceEPFvR10UErrorCodeES3_(ptr noundef nonnull align 4 dereferenceable(8) @_ZN6icu_77L19gRegionDataInitOnceE, ptr noundef @_ZN6icu_776Region14loadRegionDataER10UErrorCode, ptr noundef nonnull align 4 dereferenceable(4) %10)
  %11 = load ptr, ptr %5, align 8, !tbaa !22
  %12 = load i32, ptr %11, align 4, !tbaa !15
  %13 = call noundef signext i8 @_ZL9U_FAILURE10UErrorCode(i32 noundef %12)
  %14 = icmp ne i8 %13, 0
  br i1 %14, label %15, label %16

15:                                               ; preds = %2
  store ptr null, ptr %3, align 8
  br label %36

16:                                               ; preds = %2
  %17 = call noundef ptr @_ZN6icu_777UMemorynwEm(i64 noundef 128) #12
  %18 = icmp eq ptr %17, null
  store i1 false, ptr %7, align 1
  br i1 %18, label %26, label %19

19:                                               ; preds = %16
  store ptr %17, ptr %6, align 8
  store i1 true, ptr %7, align 1
  %20 = load i32, ptr %4, align 4, !tbaa !124
  %21 = zext i32 %20 to i64
  %22 = getelementptr inbounds nuw [7 x ptr], ptr @_ZN6icu_77L16availableRegionsE, i64 0, i64 %21
  %23 = load ptr, ptr %22, align 8, !tbaa !25
  %24 = load ptr, ptr %5, align 8, !tbaa !22
  invoke void @_ZN6icu_7721RegionNameEnumerationC1EPNS_7UVectorER10UErrorCode(ptr noundef nonnull align 8 dereferenceable(128) %17, ptr noundef %23, ptr noundef nonnull align 4 dereferenceable(4) %24)
          to label %25 unwind label %28

25:                                               ; preds = %19
  br label %26

26:                                               ; preds = %25, %16
  %27 = phi ptr [ %17, %25 ], [ null, %16 ]
  store ptr %27, ptr %3, align 8
  br label %36

28:                                               ; preds = %19
  %29 = landingpad { ptr, i32 }
          cleanup
  %30 = extractvalue { ptr, i32 } %29, 0
  store ptr %30, ptr %8, align 8
  %31 = extractvalue { ptr, i32 } %29, 1
  store i32 %31, ptr %9, align 4
  %32 = load i1, ptr %7, align 1
  br i1 %32, label %33, label %35

33:                                               ; preds = %28
  %34 = load ptr, ptr %6, align 8
  call void @_ZN6icu_777UMemorydlEPv(ptr noundef %34) #12
  br label %35

35:                                               ; preds = %33, %28
  br label %38

36:                                               ; preds = %26, %15
  %37 = load ptr, ptr %3, align 8
  ret ptr %37

38:                                               ; preds = %35
  %39 = load ptr, ptr %8, align 8
  %40 = load i32, ptr %9, align 4
  %41 = insertvalue { ptr, i32 } poison, ptr %39, 0
  %42 = insertvalue { ptr, i32 } %41, i32 %40, 1
  resume { ptr, i32 } %42
}