; Function Attrs: mustprogress uwtable
define noundef ptr @_ZN6icu_776Region12getAvailableE11URegionTypeR10UErrorCode(i32 noundef %0, ptr noundef nonnull align 4 dereferenceable(4) %1) local_unnamed_addr #1 align 2 personality ptr @__gxx_personality_v0 {
  %3 = load i32, ptr %1, align 4, !tbaa !13
  %4 = icmp slt i32 %3, 1
  br i1 %4, label %5, label %_ZN6icu_7713umtx_initOnceERNS_9UInitOnceEPFvR10UErrorCodeES3_.exit.thread

5:                                                ; preds = %2
  %6 = load atomic i32, ptr @_ZN6icu_77L19gRegionDataInitOnceE acquire, align 4
  %.not11.i = icmp eq i32 %6, 2
  br i1 %.not11.i, label %11, label %7

7:                                                ; preds = %5
  %8 = tail call noundef signext i8 @_ZN6icu_7720umtx_initImplPreInitERNS_9UInitOnceE(ptr noundef nonnull align 4 dereferenceable(8) @_ZN6icu_77L19gRegionDataInitOnceE)
  %.not12.i = icmp eq i8 %8, 0
  br i1 %.not12.i, label %11, label %9

9:                                                ; preds = %7
  tail call void @_ZN6icu_776Region14loadRegionDataER10UErrorCode(ptr noundef nonnull align 4 dereferenceable(4) %1)
  %10 = load i32, ptr %1, align 4, !tbaa !13
  store i32 %10, ptr getelementptr inbounds nuw (i8, ptr @_ZN6icu_77L19gRegionDataInitOnceE, i64 4), align 4, !tbaa !98
  tail call void @_ZN6icu_7721umtx_initImplPostInitERNS_9UInitOnceE(ptr noundef nonnull align 4 dereferenceable(8) @_ZN6icu_77L19gRegionDataInitOnceE)
  br label %_ZN6icu_7713umtx_initOnceERNS_9UInitOnceEPFvR10UErrorCodeES3_.exit

11:                                               ; preds = %7, %5
  %12 = load i32, ptr getelementptr inbounds nuw (i8, ptr @_ZN6icu_77L19gRegionDataInitOnceE, i64 4), align 4, !tbaa !98
  %13 = icmp slt i32 %12, 1
  br i1 %13, label %_ZN6icu_7713umtx_initOnceERNS_9UInitOnceEPFvR10UErrorCodeES3_.exit, label %14

14:                                               ; preds = %11
  store i32 %12, ptr %1, align 4, !tbaa !13
  br label %_ZN6icu_7713umtx_initOnceERNS_9UInitOnceEPFvR10UErrorCodeES3_.exit.thread

_ZN6icu_7713umtx_initOnceERNS_9UInitOnceEPFvR10UErrorCodeES3_.exit: ; preds = %9, %11
  %.pr = load i32, ptr %1, align 4, !tbaa !13
  %15 = icmp slt i32 %.pr, 1
  br i1 %15, label %16, label %_ZN6icu_7713umtx_initOnceERNS_9UInitOnceEPFvR10UErrorCodeES3_.exit.thread

16:                                               ; preds = %_ZN6icu_7713umtx_initOnceERNS_9UInitOnceEPFvR10UErrorCodeES3_.exit
  %17 = tail call noundef ptr @_ZN6icu_777UMemorynwEm(i64 noundef 128) #19
  %18 = icmp eq ptr %17, null
  br i1 %18, label %_ZN6icu_7713umtx_initOnceERNS_9UInitOnceEPFvR10UErrorCodeES3_.exit.thread, label %19

19:                                               ; preds = %16
  %20 = zext i32 %0 to i64
  %21 = getelementptr inbounds nuw [7 x ptr], ptr @_ZN6icu_77L16availableRegionsE, i64 0, i64 %20
  %22 = load ptr, ptr %21, align 8, !tbaa !18
  invoke void @_ZN6icu_7721RegionNameEnumerationC1EPNS_7UVectorER10UErrorCode(ptr noundef nonnull align 8 dereferenceable(128) %17, ptr noundef %22, ptr noundef nonnull align 4 dereferenceable(4) %1)
          to label %_ZN6icu_7713umtx_initOnceERNS_9UInitOnceEPFvR10UErrorCodeES3_.exit.thread unwind label %23

23:                                               ; preds = %19
  %24 = landingpad { ptr, i32 }
          cleanup
  tail call void @_ZN6icu_777UMemorydlEPv(ptr noundef nonnull %17) #19
  resume { ptr, i32 } %24

_ZN6icu_7713umtx_initOnceERNS_9UInitOnceEPFvR10UErrorCodeES3_.exit.thread: ; preds = %14, %2, %16, %19, %_ZN6icu_7713umtx_initOnceERNS_9UInitOnceEPFvR10UErrorCodeES3_.exit
  %.0 = phi ptr [ null, %_ZN6icu_7713umtx_initOnceERNS_9UInitOnceEPFvR10UErrorCodeES3_.exit ], [ null, %16 ], [ %17, %19 ], [ null, %2 ], [ null, %14 ]
  ret ptr %.0
}